; Function Attrs: nounwind uwtable
define noalias noundef ptr @Abc_NtkTestTimCollectCone(ptr noundef readonly captures(none) %0, ptr noundef %1) local_unnamed_addr #0 {
  %3 = tail call noalias dereferenceable_or_null(16) ptr @malloc(i64 noundef 16) #13
  %4 = getelementptr inbounds nuw i8, ptr %3, i64 4
  store i32 0, ptr %4, align 4
  store i32 1000, ptr %3, align 8
  %5 = tail call noalias dereferenceable_or_null(8000) ptr @malloc(i64 noundef 8000) #13
  %6 = getelementptr inbounds nuw i8, ptr %3, i64 8
  store ptr %5, ptr %6, align 8
  %.not = icmp eq ptr %1, null
  br i1 %.not, label %.preheader, label %10

.preheader:                                       ; preds = %2
  %7 = getelementptr i8, ptr %0, i64 64
  %.val15 = load ptr, ptr %7, align 8
  %8 = getelementptr i8, ptr %.val15, i64 4
  %.val.val16 = load i32, ptr %8, align 4
  %9 = icmp sgt i32 %.val.val16, 0
  br i1 %9, label %.lr.ph, label %.critedge

10:                                               ; preds = %2
  tail call void @Abc_NtkTestTimCollectCone_rec(ptr noundef nonnull %1, ptr noundef nonnull %3)
  %11 = load i32, ptr %4, align 4
  %12 = add nsw i32 %11, -1
  store i32 %12, ptr %4, align 4
  br label %.critedge

.lr.ph:                                           ; preds = %.preheader, %.lr.ph
  %indvars.iv = phi i64 [ %indvars.iv.next, %.lr.ph ], [ 0, %.preheader ]
  %.val18 = phi ptr [ %.val, %.lr.ph ], [ %.val15, %.preheader ]
  %13 = getelementptr i8, ptr %.val18, i64 8
  %.val12.val = load ptr, ptr %13, align 8
  %14 = getelementptr inbounds nuw ptr, ptr %.val12.val, i64 %indvars.iv
  %15 = load ptr, ptr %14, align 8
  %.val13 = load ptr, ptr %15, align 8
  %16 = getelementptr i8, ptr %15, i64 32
  %.val14 = load ptr, ptr %16, align 8
  %17 = getelementptr i8, ptr %.val13, i64 32
  %.val13.val = load ptr, ptr %17, align 8
  %.val14.val = load i32, ptr %.val14, align 4
  %18 = getelementptr i8, ptr %.val13.val, i64 8
  %.val13.val.val = load ptr, ptr %18, align 8
  %19 = sext i32 %.val14.val to i64
  %20 = getelementptr inbounds ptr, ptr %.val13.val.val, i64 %19
  %21 = load ptr, ptr %20, align 8
  tail call void @Abc_NtkTestTimCollectCone_rec(ptr noundef %21, ptr noundef nonnull %3)
  %indvars.iv.next = add nuw nsw i64 %indvars.iv, 1
  %.val = load ptr, ptr %7, align 8
  %22 = getelementptr i8, ptr %.val, i64 4
  %.val.val = load i32, ptr %22, align 4
  %23 = sext i32 %.val.val to i64
  %24 = icmp slt i64 %indvars.iv.next, %23
  br i1 %24, label %.lr.ph, label %.critedge, !llvm.loop !7

.critedge:                                        ; preds = %.lr.ph, %.preheader, %10
  ret ptr %3
}